; Function Attrs: nounwind uwtable
define ptr @l___private_Lake_Build_Common_0__Lake_mkLinkOrder_go___lambda__2(ptr noundef %0, ptr noundef %1, ptr noundef %2, ptr noundef %3, ptr readnone captures(none) %4) local_unnamed_addr #0 {
  %6 = getelementptr inbounds nuw i8, ptr %0, i64 16
  %7 = load ptr, ptr %6, align 8, !tbaa !9
  %8 = ptrtoint ptr %7 to i64
  %9 = and i64 %8, 1
  %.not = icmp eq i64 %9, 0
  br i1 %.not, label %10, label %lean_inc.exit.thread

10:                                               ; preds = %5
  %.val.i = load i32, ptr %7, align 4, !tbaa !4
  %11 = icmp sgt i32 %.val.i, 0
  br i1 %11, label %12, label %14, !prof !12

12:                                               ; preds = %10
  %13 = add nuw i32 %.val.i, 1
  store i32 %13, ptr %7, align 4, !tbaa !4
  br label %lean_inc.exit

14:                                               ; preds = %10
  %.not.i31 = icmp eq i32 %.val.i, 0
  br i1 %.not.i31, label %lean_inc.exit, label %15

15:                                               ; preds = %14
  tail call void @lean_inc_ref_cold(ptr noundef nonnull %7) #5
  br label %lean_inc.exit

lean_inc.exit:                                    ; preds = %15, %14, %12
  %16 = tail call zeroext i8 @l_List_elem___at_Lake_envToBool_x3f___spec__1(ptr noundef nonnull %7, ptr noundef %1) #5
  %17 = icmp eq i8 %16, 0
  br i1 %17, label %20, label %28

lean_inc.exit.thread:                             ; preds = %5
  %18 = tail call zeroext i8 @l_List_elem___at_Lake_envToBool_x3f___spec__1(ptr noundef %7, ptr noundef %1) #5
  %19 = icmp eq i8 %18, 0
  br i1 %19, label %lean_dec.exit24, label %28

20:                                               ; preds = %lean_inc.exit
  %21 = load i32, ptr %7, align 4, !tbaa !4
  %22 = icmp sgt i32 %21, 1
  br i1 %22, label %23, label %25, !prof !12

23:                                               ; preds = %20
  %24 = add nsw i32 %21, -1
  store i32 %24, ptr %7, align 4, !tbaa !4
  br label %lean_dec.exit24

25:                                               ; preds = %20
  %.not.i = icmp eq i32 %21, 0
  br i1 %.not.i, label %lean_dec.exit24, label %26

26:                                               ; preds = %25
  tail call void @lean_dec_ref_cold(ptr noundef nonnull %7) #5
  br label %lean_dec.exit24

lean_dec.exit24:                                  ; preds = %lean_inc.exit.thread, %26, %25, %23
  %27 = tail call ptr @l___private_Lake_Build_Common_0__Lake_mkLinkOrder_go___lambda__1(ptr noundef nonnull %0, ptr noundef %1, ptr noundef %2, ptr noundef %3, ptr nonnull poison)
  br label %67

28:                                               ; preds = %lean_inc.exit.thread, %lean_inc.exit
  %29 = ptrtoint ptr %3 to i64
  %30 = and i64 %29, 1
  %.not33 = icmp eq i64 %30, 0
  br i1 %.not33, label %31, label %lean_dec.exit23

31:                                               ; preds = %28
  %32 = load i32, ptr %3, align 4, !tbaa !4
  %33 = icmp sgt i32 %32, 1
  br i1 %33, label %34, label %36, !prof !12

34:                                               ; preds = %31
  %35 = add nsw i32 %32, -1
  store i32 %35, ptr %3, align 4, !tbaa !4
  br label %lean_dec.exit23

36:                                               ; preds = %31
  %.not.i25 = icmp eq i32 %32, 0
  br i1 %.not.i25, label %lean_dec.exit23, label %37

37:                                               ; preds = %36
  tail call void @lean_dec_ref_cold(ptr noundef nonnull %3) #5
  br label %lean_dec.exit23

lean_dec.exit23:                                  ; preds = %37, %36, %34, %28
  %38 = ptrtoint ptr %2 to i64
  %39 = and i64 %38, 1
  %.not34 = icmp eq i64 %39, 0
  br i1 %.not34, label %40, label %lean_dec.exit22

40:                                               ; preds = %lean_dec.exit23
  %41 = load i32, ptr %2, align 4, !tbaa !4
  %42 = icmp sgt i32 %41, 1
  br i1 %42, label %43, label %45, !prof !12

43:                                               ; preds = %40
  %44 = add nsw i32 %41, -1
  store i32 %44, ptr %2, align 4, !tbaa !4
  br label %lean_dec.exit22

45:                                               ; preds = %40
  %.not.i27 = icmp eq i32 %41, 0
  br i1 %.not.i27, label %lean_dec.exit22, label %46

46:                                               ; preds = %45
  tail call void @lean_dec_ref_cold(ptr noundef nonnull %2) #5
  br label %lean_dec.exit22

lean_dec.exit22:                                  ; preds = %46, %45, %43, %lean_dec.exit23
  %47 = ptrtoint ptr %0 to i64
  %48 = and i64 %47, 1
  %.not35 = icmp eq i64 %48, 0
  br i1 %.not35, label %49, label %lean_dec.exit

49:                                               ; preds = %lean_dec.exit22
  %50 = load i32, ptr %0, align 4, !tbaa !4
  %51 = icmp sgt i32 %50, 1
  br i1 %51, label %52, label %54, !prof !12

52:                                               ; preds = %49
  %53 = add nsw i32 %50, -1
  store i32 %53, ptr %0, align 4, !tbaa !4
  br label %lean_dec.exit

54:                                               ; preds = %49
  %.not.i29 = icmp eq i32 %50, 0
  br i1 %.not.i29, label %lean_dec.exit, label %55

55:                                               ; preds = %54
  tail call void @lean_dec_ref_cold(ptr noundef nonnull %0) #5
  br label %lean_dec.exit

lean_dec.exit:                                    ; preds = %55, %54, %52, %lean_dec.exit22
  tail call void @lean_inc_heartbeat() #5
  %56 = tail call noalias ptr @mi_malloc_small(i64 noundef 24) #5
  %57 = icmp eq ptr %56, null
  br i1 %57, label %58, label %lean_alloc_ctor.exit

58:                                               ; preds = %lean_dec.exit
  tail call void @lean_internal_panic_out_of_memory() #6
  unreachable

lean_alloc_ctor.exit:                             ; preds = %lean_dec.exit
  %59 = getelementptr inbounds nuw i8, ptr %56, i64 4
  store i32 1, ptr %56, align 4, !tbaa !4
  store i32 16908312, ptr %59, align 4
  %60 = getelementptr inbounds nuw i8, ptr %56, i64 8
  store ptr %7, ptr %60, align 8, !tbaa !9
  %61 = getelementptr inbounds nuw i8, ptr %56, i64 16
  store ptr %1, ptr %61, align 8, !tbaa !9
  tail call void @lean_inc_heartbeat() #5
  %62 = tail call noalias ptr @mi_malloc_small(i64 noundef 16) #5
  %63 = icmp eq ptr %62, null
  br i1 %63, label %64, label %lean_alloc_ctor.exit32

64:                                               ; preds = %lean_alloc_ctor.exit
  tail call void @lean_internal_panic_out_of_memory() #6
  unreachable

lean_alloc_ctor.exit32:                           ; preds = %lean_alloc_ctor.exit
  %65 = getelementptr inbounds nuw i8, ptr %62, i64 4
  store i32 1, ptr %62, align 4, !tbaa !4
  store i32 65552, ptr %65, align 4
  %66 = getelementptr inbounds nuw i8, ptr %62, i64 8
  store ptr %56, ptr %66, align 8, !tbaa !9
  br label %67

67:                                               ; preds = %lean_alloc_ctor.exit32, %lean_dec.exit24
  %.0 = phi ptr [ %27, %lean_dec.exit24 ], [ %62, %lean_alloc_ctor.exit32 ]
  ret ptr %.0
}